; Function Attrs: nounwind uwtable
define ptr @av_strireplace(ptr noundef %0, ptr noundef readonly captures(none) %1, ptr noundef %2) local_unnamed_addr #9 {
  %4 = alloca ptr, align 8
  %5 = alloca %struct.AVBPrint, align 8
  call void @llvm.lifetime.start.p0(i64 8, ptr nonnull %4) #19
  store ptr null, ptr %4, align 8, !tbaa !9
  %6 = tail call i64 @strlen(ptr noundef nonnull dereferenceable(1) %2) #18
  %7 = tail call i64 @strlen(ptr noundef nonnull dereferenceable(1) %1) #18
  call void @llvm.lifetime.start.p0(i64 1024, ptr nonnull %5) #19
  call void @av_bprint_init(ptr noundef nonnull %5, i32 noundef 1, i32 noundef -1) #19
  %8 = trunc i64 %6 to i32
  br label %9

9:                                                ; preds = %27, %3
  %.0 = phi ptr [ %0, %3 ], [ %32, %27 ]
  %10 = load i8, ptr %1, align 1, !tbaa !4
  %.not.i = icmp eq i8 %10, 0
  br i1 %.not.i, label %av_stristr.exit, label %.preheader.i

.preheader.i:                                     ; preds = %9, %24
  %.07.i = phi ptr [ %25, %24 ], [ %.0, %9 ]
  br label %.lr.ph.i.i

.lr.ph.i.i:                                       ; preds = %20, %.preheader.i
  %11 = phi i8 [ %23, %20 ], [ %10, %.preheader.i ]
  %.024.i.i = phi ptr [ %22, %20 ], [ %.07.i, %.preheader.i ]
  %.01123.i.i = phi ptr [ %21, %20 ], [ %1, %.preheader.i ]
  %12 = sext i8 %11 to i32
  %13 = add nsw i32 %12, -97
  %or.cond.i.i.i = icmp ult i32 %13, 26
  %14 = and i32 %12, 95
  %spec.select.i.i.i = select i1 %or.cond.i.i.i, i32 %14, i32 %12
  %15 = load i8, ptr %.024.i.i, align 1, !tbaa !4
  %16 = sext i8 %15 to i32
  %17 = add nsw i32 %16, -97
  %or.cond.i15.i.i = icmp ult i32 %17, 26
  %18 = and i32 %16, 95
  %spec.select.i16.i.i = select i1 %or.cond.i15.i.i, i32 %18, i32 %16
  %19 = icmp eq i32 %spec.select.i.i.i, %spec.select.i16.i.i
  br i1 %19, label %20, label %24

20:                                               ; preds = %.lr.ph.i.i
  %21 = getelementptr inbounds nuw i8, ptr %.01123.i.i, i64 1
  %22 = getelementptr inbounds nuw i8, ptr %.024.i.i, i64 1
  %23 = load i8, ptr %21, align 1, !tbaa !4
  %.not.i.i = icmp eq i8 %23, 0
  br i1 %.not.i.i, label %av_stristr.exit, label %.lr.ph.i.i, !llvm.loop !12

24:                                               ; preds = %.lr.ph.i.i
  %25 = getelementptr inbounds nuw i8, ptr %.07.i, i64 1
  %26 = load i8, ptr %.07.i, align 1, !tbaa !4
  %.not9.i = icmp eq i8 %26, 0
  br i1 %.not9.i, label %av_stristr.exit.thread, label %.preheader.i, !llvm.loop !13

av_stristr.exit:                                  ; preds = %20, %9
  %.0.i = phi ptr [ %.0, %9 ], [ %.07.i, %20 ]
  %.not = icmp eq ptr %.0.i, null
  br i1 %.not, label %av_stristr.exit.thread, label %27

27:                                               ; preds = %av_stristr.exit
  %28 = ptrtoint ptr %.0.i to i64
  %29 = ptrtoint ptr %.0 to i64
  %30 = sub i64 %28, %29
  %31 = trunc i64 %30 to i32
  call void @av_bprint_append_data(ptr noundef nonnull %5, ptr noundef %.0, i32 noundef %31) #19
  %32 = getelementptr inbounds nuw i8, ptr %.0.i, i64 %7
  call void @av_bprint_append_data(ptr noundef nonnull %5, ptr noundef nonnull %2, i32 noundef %8) #19
  br label %9, !llvm.loop !21

av_stristr.exit.thread:                           ; preds = %av_stristr.exit, %24
  %33 = call i64 @strlen(ptr noundef nonnull dereferenceable(1) %.0) #18
  %34 = trunc i64 %33 to i32
  call void @av_bprint_append_data(ptr noundef nonnull %5, ptr noundef nonnull %.0, i32 noundef %34) #19
  %35 = getelementptr inbounds nuw i8, ptr %5, i64 8
  %.val = load i32, ptr %35, align 8, !tbaa !22
  %36 = getelementptr inbounds nuw i8, ptr %5, i64 12
  %.val15 = load i32, ptr %36, align 4, !tbaa !25
  %.not18 = icmp ult i32 %.val, %.val15
  %. = select i1 %.not18, ptr %4, ptr null
  %37 = call i32 @av_bprint_finalize(ptr noundef nonnull %5, ptr noundef %.) #19
  %38 = load ptr, ptr %4, align 8, !tbaa !9
  call void @llvm.lifetime.end.p0(i64 1024, ptr nonnull %5) #19
  call void @llvm.lifetime.end.p0(i64 8, ptr nonnull %4) #19
  ret ptr %38
}